target datalayout = "e-m:e-p270:32:32-p271:32:32-p272:64:64-i64:64-i128:128-f80:128-n8:16:32:64-S128"
target triple = "x86_64-pc-linux-gnu"

%struct.PlaceHolderVar = type { %struct.Expr, ptr, ptr, ptr, i32, i32 }
%struct.Expr = type { i32 }
%struct.PlannerInfo = type { i32, ptr, ptr, i32, ptr, ptr, ptr, ptr, i32, ptr, ptr, ptr, ptr, ptr, ptr, ptr, ptr, i32, ptr, ptr, ptr, ptr, ptr, i8, ptr, ptr, ptr, ptr, ptr, i32, ptr, ptr, ptr, ptr, ptr, ptr, ptr, i32, ptr, ptr, ptr, i32, ptr, ptr, ptr, ptr, ptr, ptr, [8 x ptr], [8 x ptr], ptr, ptr, ptr, ptr, ptr, ptr, ptr, double, double, double, i32, i8, i8, i8, i8, i8, i8, i8, i32, ptr, ptr, i32, i8, i8, i32, ptr, ptr, ptr, ptr, ptr, ptr, i8, ptr }
%struct.PlannerGlobal = type { i32, ptr, ptr, ptr, ptr, ptr, ptr, ptr, ptr, ptr, ptr, ptr, ptr, ptr, ptr, ptr, ptr, i32, i32, i32, i8, i8, i8, i8, i8, ptr }
%struct.Node = type { i32 }
%struct.contain_placeholder_references_context = type { i32, i32 }

; Function Attrs: nounwind uwtable
define internal zeroext i1 @contain_placeholder_references_walker(ptr noundef %0, ptr noundef %1) #0 {
  %3 = alloca i1, align 1
  %4 = alloca ptr, align 8
  %5 = alloca ptr, align 8
  %6 = alloca ptr, align 8
  %7 = alloca i32, align 4
  %8 = alloca i8, align 1
  store ptr %0, ptr %4, align 8
  store ptr %1, ptr %5, align 8
  %9 = load ptr, ptr %4, align 8
  %10 = icmp eq ptr %9, null
  br i1 %10, label %11, label %12

11:                                               ; preds = %2
  store i1 false, ptr %3, align 1
  br label %65

12:                                               ; preds = %2
  %13 = load ptr, ptr %4, align 8
  %14 = getelementptr inbounds nuw %struct.Node, ptr %13, i32 0, i32 0
  %15 = load i32, ptr %14, align 4
  %16 = icmp eq i32 %15, 318
  br i1 %16, label %17, label %40

17:                                               ; preds = %12
  call void @llvm.lifetime.start.p0(i64 8, ptr %6) #6
  %18 = load ptr, ptr %4, align 8
  store ptr %18, ptr %6, align 8
  %19 = load ptr, ptr %6, align 8
  %20 = getelementptr inbounds nuw %struct.PlaceHolderVar, ptr %19, i32 0, i32 5
  %21 = load i32, ptr %20, align 4
  %22 = load ptr, ptr %5, align 8
  %23 = getelementptr inbounds nuw %struct.contain_placeholder_references_context, ptr %22, i32 0, i32 1
  %24 = load i32, ptr %23, align 4
  %25 = icmp eq i32 %21, %24
  br i1 %25, label %26, label %36

26:                                               ; preds = %17
  %27 = load ptr, ptr %5, align 8
  %28 = getelementptr inbounds nuw %struct.contain_placeholder_references_context, ptr %27, i32 0, i32 0
  %29 = load i32, ptr %28, align 4
  %30 = load ptr, ptr %6, align 8
  %31 = getelementptr inbounds nuw %struct.PlaceHolderVar, ptr %30, i32 0, i32 2
  %32 = load ptr, ptr %31, align 8
  %33 = call zeroext i1 @bms_is_member(i32 noundef %29, ptr noundef %32)
  br i1 %33, label %34, label %35

34:                                               ; preds = %26
  store i1 true, ptr %3, align 1
  store i32 1, ptr %7, align 4
  br label %37

35:                                               ; preds = %26
  store i1 false, ptr %3, align 1
  store i32 1, ptr %7, align 4
  br label %37

36:                                               ; preds = %17
  store i32 0, ptr %7, align 4
  br label %37

37:                                               ; preds = %36, %35, %34
  call void @llvm.lifetime.end.p0(i64 8, ptr %6) #6
  %38 = load i32, ptr %7, align 4
  switch i32 %38, label %67 [
    i32 0, label %39
    i32 1, label %65
  ]

39:                                               ; preds = %37
  br label %61

40:                                               ; preds = %12
  %41 = load ptr, ptr %4, align 8
  %42 = getelementptr inbounds nuw %struct.Node, ptr %41, i32 0, i32 0
  %43 = load i32, ptr %42, align 4
  %44 = icmp eq i32 %43, 67
  br i1 %44, label %45, label %60

45:                                               ; preds = %40
  call void @llvm.lifetime.start.p0(i64 1, ptr %8) #6
  %46 = load ptr, ptr %5, align 8
  %47 = getelementptr inbounds nuw %struct.contain_placeholder_references_context, ptr %46, i32 0, i32 1
  %48 = load i32, ptr %47, align 4
  %49 = add i32 %48, 1
  store i32 %49, ptr %47, align 4
  %50 = load ptr, ptr %4, align 8
  %51 = load ptr, ptr %5, align 8
  %52 = call zeroext i1 @query_tree_walker_impl(ptr noundef %50, ptr noundef @contain_placeholder_references_walker, ptr noundef %51, i32 noundef 0)
  %53 = zext i1 %52 to i8
  store i8 %53, ptr %8, align 1
  %54 = load ptr, ptr %5, align 8
  %55 = getelementptr inbounds nuw %struct.contain_placeholder_references_context, ptr %54, i32 0, i32 1
  %56 = load i32, ptr %55, align 4
  %57 = add i32 %56, -1
  store i32 %57, ptr %55, align 4
  %58 = load i8, ptr %8, align 1, !range !4, !noundef !5
  %59 = trunc i8 %58 to i1
  store i1 %59, ptr %3, align 1
  store i32 1, ptr %7, align 4
  call void @llvm.lifetime.end.p0(i64 1, ptr %8) #6
  br label %65

60:                                               ; preds = %40
  br label %61

61:                                               ; preds = %60, %39
  %62 = load ptr, ptr %4, align 8
  %63 = load ptr, ptr %5, align 8
  %64 = call zeroext i1 @expression_tree_walker_impl(ptr noundef %62, ptr noundef @contain_placeholder_references_walker, ptr noundef %63)
  store i1 %64, ptr %3, align 1
  br label %65

65:                                               ; preds = %61, %45, %37, %11
  %66 = load i1, ptr %3, align 1
  ret i1 %66

67:                                               ; preds = %37
  unreachable
}

; Function Attrs: nounwind uwtable
define dso_local zeroext i1 @contain_placeholder_references_to(ptr noundef %0, ptr noundef %1, i32 noundef %2) #0 {
  %4 = alloca i1, align 1
  %5 = alloca ptr, align 8
  %6 = alloca ptr, align 8
  %7 = alloca i32, align 4
  %8 = alloca %struct.contain_placeholder_references_context, align 4
  %9 = alloca i32, align 4
  store ptr %0, ptr %5, align 8
  store ptr %1, ptr %6, align 8
  store i32 %2, ptr %7, align 4
  call void @llvm.lifetime.start.p0(i64 8, ptr %8) #6
  %10 = load ptr, ptr %5, align 8
  %11 = getelementptr inbounds nuw %struct.PlannerInfo, ptr %10, i32 0, i32 2
  %12 = load ptr, ptr %11, align 8
  %13 = getelementptr inbounds nuw %struct.PlannerGlobal, ptr %12, i32 0, i32 17
  %14 = load i32, ptr %13, align 8
  %15 = icmp eq i32 %14, 0
  br i1 %15, label %16, label %17

16:                                               ; preds = %3
  store i1 false, ptr %4, align 1
  store i32 1, ptr %9, align 4
  br label %23

17:                                               ; preds = %3
  %18 = load i32, ptr %7, align 4
  %19 = getelementptr inbounds nuw %struct.contain_placeholder_references_context, ptr %8, i32 0, i32 0
  store i32 %18, ptr %19, align 4
  %20 = getelementptr inbounds nuw %struct.contain_placeholder_references_context, ptr %8, i32 0, i32 1
  store i32 0, ptr %20, align 4
  %21 = load ptr, ptr %6, align 8
  %22 = call zeroext i1 @contain_placeholder_references_walker(ptr noundef %21, ptr noundef %8)
  store i1 %22, ptr %4, align 1
  store i32 1, ptr %9, align 4
  br label %23

23:                                               ; preds = %17, %16
  call void @llvm.lifetime.end.p0(i64 8, ptr %8) #6
  %24 = load i1, ptr %4, align 1
  ret i1 %24
}