; Function Attrs: nounwind uwtable
define dso_local zeroext i1 @contain_placeholder_references_to(ptr noundef readonly captures(none) %0, ptr noundef %1, i32 noundef %2) local_unnamed_addr #0 {
  %4 = alloca %struct.contain_placeholder_references_context, align 4
  call void @llvm.lifetime.start.p0(i64 8, ptr nonnull %4) #5
  %5 = getelementptr inbounds nuw i8, ptr %0, i64 16
  %6 = load ptr, ptr %5, align 8
  %7 = getelementptr inbounds nuw i8, ptr %6, i64 136
  %8 = load i32, ptr %7, align 8
  %9 = icmp eq i32 %8, 0
  br i1 %9, label %contain_placeholder_references_walker.exit, label %10

10:                                               ; preds = %3
  store i32 %2, ptr %4, align 4
  %11 = getelementptr inbounds nuw i8, ptr %4, i64 4
  store i32 0, ptr %11, align 4
  %12 = icmp eq ptr %1, null
  br i1 %12, label %contain_placeholder_references_walker.exit, label %13

13:                                               ; preds = %10
  %14 = load i32, ptr %1, align 4
  switch i32 %14, label %.thread.i [
    i32 318, label %15
    i32 67, label %23
  ]

15:                                               ; preds = %13
  %16 = getelementptr inbounds nuw i8, ptr %1, i64 36
  %17 = load i32, ptr %16, align 4
  %18 = icmp eq i32 %17, 0
  br i1 %18, label %19, label %.thread.i

19:                                               ; preds = %15
  %20 = getelementptr inbounds nuw i8, ptr %1, i64 16
  %21 = load ptr, ptr %20, align 8
  %22 = tail call zeroext i1 @bms_is_member(i32 noundef %2, ptr noundef %21) #5
  br label %contain_placeholder_references_walker.exit

23:                                               ; preds = %13
  store i32 1, ptr %11, align 4
  %24 = call zeroext i1 @query_tree_walker_impl(ptr noundef nonnull %1, ptr noundef nonnull @contain_placeholder_references_walker, ptr noundef nonnull %4, i32 noundef 0) #5
  br label %contain_placeholder_references_walker.exit

.thread.i:                                        ; preds = %15, %13
  %25 = call zeroext i1 @expression_tree_walker_impl(ptr noundef nonnull %1, ptr noundef nonnull @contain_placeholder_references_walker, ptr noundef nonnull %4) #5
  br label %contain_placeholder_references_walker.exit

contain_placeholder_references_walker.exit:       ; preds = %.thread.i, %23, %19, %10, %3
  %.0 = phi i1 [ false, %3 ], [ %22, %19 ], [ %25, %.thread.i ], [ %24, %23 ], [ false, %10 ]
  call void @llvm.lifetime.end.p0(i64 8, ptr nonnull %4) #5
  ret i1 %.0
}